; ModuleID = '26/544.c'
source_filename = "26/544.c"
target datalayout = "e-m:e-p270:32:32-p271:32:32-p272:64:64-i64:64-f80:128-n8:16:32:64-S128"
target triple = "x86_64-pc-linux-gnu"

@.str = private unnamed_addr constant [3 x i8] c"%s\00", align 1
@.str.1 = private unnamed_addr constant [4 x i8] c" %s\00", align 1

; Function Attrs: noinline nounwind uwtable
define dso_local i32 @main() #0 {
  %1 = alloca i32, align 4
  %2 = alloca [101 x i8], align 16
  %3 = alloca [101 x [30 x i8]], align 16
  %4 = alloca i32, align 4
  %5 = alloca i32, align 4
  %6 = alloca i32, align 4
  %7 = alloca i32, align 4
  store i32 0, i32* %1, align 4
  %8 = getelementptr inbounds [101 x i8], [101 x i8]* %2, i64 0, i64 0
  %9 = call i32 (i8*, ...) bitcast (i32 (...)* @gets to i32 (i8*, ...)*)(i8* %8)
  %10 = getelementptr inbounds [101 x i8], [101 x i8]* %2, i64 0, i64 0
  %11 = call i64 @strlen(i8* %10) #3
  %12 = trunc i64 %11 to i32
  store i32 %12, i32* %7, align 4
  store i32 0, i32* %6, align 4
  store i32 0, i32* %5, align 4
  store i32 0, i32* %4, align 4
  br label %13

13:                                               ; preds = %65, %0
  %14 = load i32, i32* %4, align 4
  %15 = load i32, i32* %7, align 4
  %16 = icmp sle i32 %14, %15
  br i1 %16, label %17, label %68

17:                                               ; preds = %13
  %18 = load i32, i32* %4, align 4
  %19 = sext i32 %18 to i64
  %20 = getelementptr inbounds [101 x i8], [101 x i8]* %2, i64 0, i64 %19
  %21 = load i8, i8* %20, align 1
  %22 = sext i8 %21 to i32
  %23 = icmp eq i32 %22, 32
  br i1 %23, label %38, label %24

24:                                               ; preds = %17
  %25 = load i32, i32* %4, align 4
  %26 = sext i32 %25 to i64
  %27 = getelementptr inbounds [101 x i8], [101 x i8]* %2, i64 0, i64 %26
  %28 = load i8, i8* %27, align 1
  %29 = sext i8 %28 to i32
  %30 = icmp eq i32 %29, 44
  br i1 %30, label %38, label %31

31:                                               ; preds = %24
  %32 = load i32, i32* %4, align 4
  %33 = sext i32 %32 to i64
  %34 = getelementptr inbounds [101 x i8], [101 x i8]* %2, i64 0, i64 %33
  %35 = load i8, i8* %34, align 1
  %36 = sext i8 %35 to i32
  %37 = icmp eq i32 %36, 46
  br i1 %37, label %38, label %52

38:                                               ; preds = %31, %24, %17
  %39 = load i32, i32* %6, align 4
  %40 = icmp eq i32 %39, 0
  br i1 %40, label %41, label %42

41:                                               ; preds = %38
  br label %65

42:                                               ; preds = %38
  %43 = load i32, i32* %5, align 4
  %44 = sext i32 %43 to i64
  %45 = getelementptr inbounds [101 x [30 x i8]], [101 x [30 x i8]]* %3, i64 0, i64 %44
  %46 = load i32, i32* %6, align 4
  %47 = sext i32 %46 to i64
  %48 = getelementptr inbounds [30 x i8], [30 x i8]* %45, i64 0, i64 %47
  store i8 0, i8* %48, align 1
  %49 = load i32, i32* %5, align 4
  %50 = add nsw i32 %49, 1
  store i32 %50, i32* %5, align 4
  store i32 0, i32* %6, align 4
  br label %51

51:                                               ; preds = %42
  br label %64

52:                                               ; preds = %31
  %53 = load i32, i32* %4, align 4
  %54 = sext i32 %53 to i64
  %55 = getelementptr inbounds [101 x i8], [101 x i8]* %2, i64 0, i64 %54
  %56 = load i8, i8* %55, align 1
  %57 = load i32, i32* %5, align 4
  %58 = sext i32 %57 to i64
  %59 = getelementptr inbounds [101 x [30 x i8]], [101 x [30 x i8]]* %3, i64 0, i64 %58
  %60 = load i32, i32* %6, align 4
  %61 = add nsw i32 %60, 1
  store i32 %61, i32* %6, align 4
  %62 = sext i32 %60 to i64
  %63 = getelementptr inbounds [30 x i8], [30 x i8]* %59, i64 0, i64 %62
  store i8 %56, i8* %63, align 1
  br label %64

64:                                               ; preds = %52, %51
  br label %65

65:                                               ; preds = %64, %41
  %66 = load i32, i32* %4, align 4
  %67 = add nsw i32 %66, 1
  store i32 %67, i32* %4, align 4
  br label %13

68:                                               ; preds = %13
  %69 = getelementptr inbounds [101 x [30 x i8]], [101 x [30 x i8]]* %3, i64 0, i64 0
  %70 = getelementptr inbounds [30 x i8], [30 x i8]* %69, i64 0, i64 0
  %71 = call i32 (i8*, ...) @printf(i8* getelementptr inbounds ([3 x i8], [3 x i8]* @.str, i64 0, i64 0), i8* %70)
  store i32 1, i32* %4, align 4
  br label %72

72:                                               ; preds = %82, %68
  %73 = load i32, i32* %4, align 4
  %74 = load i32, i32* %5, align 4
  %75 = icmp sle i32 %73, %74
  br i1 %75, label %76, label %85

76:                                               ; preds = %72
  %77 = load i32, i32* %4, align 4
  %78 = sext i32 %77 to i64
  %79 = getelementptr inbounds [101 x [30 x i8]], [101 x [30 x i8]]* %3, i64 0, i64 %78
  %80 = getelementptr inbounds [30 x i8], [30 x i8]* %79, i64 0, i64 0
  %81 = call i32 (i8*, ...) @printf(i8* getelementptr inbounds ([4 x i8], [4 x i8]* @.str.1, i64 0, i64 0), i8* %80)
  br label %82

82:                                               ; preds = %76
  %83 = load i32, i32* %4, align 4
  %84 = add nsw i32 %83, 1
  store i32 %84, i32* %4, align 4
  br label %72

85:                                               ; preds = %72
  %86 = load i32, i32* %1, align 4
  ret i32 %86
}

declare dso_local i32 @gets(...) #1

; Function Attrs: nounwind readonly
declare dso_local i64 @strlen(i8*) #2

declare dso_local i32 @printf(i8*, ...) #1


!llvm.module.flags = !{!0}
!llvm.ident = !{!1}

!0 = !{i32 1, !"wchar_size", i32 4}
!1 = !{!"clang version 10.0.0-4ubuntu1 "}
